target datalayout = "e-m:e-p270:32:32-p271:32:32-p272:64:64-i64:64-i128:128-f80:128-n8:16:32:64-S128"
target triple = "x86_64-pc-linux-gnu"

%"class.std::__cxx11::basic_string" = type { %"struct.std::__cxx11::basic_string<char>::_Alloc_hider", i64, %union.anon }
%"struct.std::__cxx11::basic_string<char>::_Alloc_hider" = type { ptr }
%union.anon = type { i64, [8 x i8] }
%"class.std::basic_string_view" = type { i64, ptr }
%"class.nix::StorePath" = type { %"class.std::__cxx11::basic_string" }

@__const._ZN3nix15BasicDerivation12nameFromPathERKNS_9StorePathE.extension = private unnamed_addr constant %"class.std::basic_string_view" { i64 4, ptr @.str.31 }, align 8
@.str.63 = private unnamed_addr constant [26 x i8] c"basic_string_view::substr\00", align 1
@.str.64 = private unnamed_addr constant [49 x i8] c"%s: __pos (which is %zu) > __size (which is %zu)\00", align 1

; Function Attrs: mustprogress nounwind uwtable
define linkonce_odr noundef ptr @_ZNKSt7__cxx1112basic_stringIcSt11char_traitsIcESaIcEE7_M_dataEv(ptr noundef nonnull align 8 dereferenceable(32) %0) #2 comdat align 2 {
  %2 = alloca ptr, align 8
  store ptr %0, ptr %2, align 8
  %3 = load ptr, ptr %2, align 8
  %4 = getelementptr inbounds %"class.std::__cxx11::basic_string", ptr %3, i32 0, i32 0
  %5 = getelementptr inbounds %"struct.std::__cxx11::basic_string<char>::_Alloc_hider", ptr %4, i32 0, i32 0
  %6 = load ptr, ptr %5, align 8
  ret ptr %6
}

; Function Attrs: mustprogress nounwind uwtable
define linkonce_odr noundef nonnull align 8 dereferenceable(8) ptr @_ZSt3minImERKT_S2_S2_(ptr noundef nonnull align 8 dereferenceable(8) %0, ptr noundef nonnull align 8 dereferenceable(8) %1) #2 comdat {
  %3 = alloca ptr, align 8
  %4 = alloca ptr, align 8
  %5 = alloca ptr, align 8
  store ptr %0, ptr %4, align 8
  store ptr %1, ptr %5, align 8
  %6 = load ptr, ptr %5, align 8
  %7 = load i64, ptr %6, align 8
  %8 = load ptr, ptr %4, align 8
  %9 = load i64, ptr %8, align 8
  %10 = icmp ult i64 %7, %9
  br i1 %10, label %11, label %13

11:                                               ; preds = %2
  %12 = load ptr, ptr %5, align 8
  store ptr %12, ptr %3, align 8
  br label %15

13:                                               ; preds = %2
  %14 = load ptr, ptr %4, align 8
  store ptr %14, ptr %3, align 8
  br label %15

15:                                               ; preds = %13, %11
  %16 = load ptr, ptr %3, align 8
  ret ptr %16
}

; Function Attrs: mustprogress uwtable
define linkonce_odr noundef i64 @_ZSt10__sv_checkmmPKc(i64 noundef %0, i64 noundef %1, ptr noundef %2) #5 comdat {
  %4 = alloca i64, align 8
  %5 = alloca i64, align 8
  %6 = alloca ptr, align 8
  store i64 %0, ptr %4, align 8
  store i64 %1, ptr %5, align 8
  store ptr %2, ptr %6, align 8
  %7 = load i64, ptr %5, align 8
  %8 = load i64, ptr %4, align 8
  %9 = icmp ugt i64 %7, %8
  br i1 %9, label %10, label %14

10:                                               ; preds = %3
  %11 = load ptr, ptr %6, align 8
  %12 = load i64, ptr %5, align 8
  %13 = load i64, ptr %4, align 8
  call void (ptr, ...) @_ZSt24__throw_out_of_range_fmtPKcz(ptr noundef @.str.64, ptr noundef %11, i64 noundef %12, i64 noundef %13) #21
  unreachable

14:                                               ; preds = %3
  %15 = load i64, ptr %5, align 8
  ret i64 %15
}

; Function Attrs: mustprogress nounwind uwtable
define linkonce_odr void @_ZNSt17basic_string_viewIcSt11char_traitsIcEEC2EPKcm(ptr noundef nonnull align 8 dereferenceable(16) %0, ptr noundef %1, i64 noundef %2) unnamed_addr #2 comdat align 2 {
  %4 = alloca ptr, align 8
  %5 = alloca ptr, align 8
  %6 = alloca i64, align 8
  store ptr %0, ptr %4, align 8
  store ptr %1, ptr %5, align 8
  store i64 %2, ptr %6, align 8
  %7 = load ptr, ptr %4, align 8
  %8 = getelementptr inbounds %"class.std::basic_string_view", ptr %7, i32 0, i32 0
  %9 = load i64, ptr %6, align 8
  store i64 %9, ptr %8, align 8
  %10 = getelementptr inbounds %"class.std::basic_string_view", ptr %7, i32 0, i32 1
  %11 = load ptr, ptr %5, align 8
  store ptr %11, ptr %10, align 8
  ret void
}

; Function Attrs: mustprogress nounwind uwtable
define linkonce_odr noundef i64 @_ZNKSt7__cxx1112basic_stringIcSt11char_traitsIcESaIcEE4sizeEv(ptr noundef nonnull align 8 dereferenceable(32) %0) #2 comdat align 2 {
  %2 = alloca ptr, align 8
  store ptr %0, ptr %2, align 8
  %3 = load ptr, ptr %2, align 8
  %4 = getelementptr inbounds %"class.std::__cxx11::basic_string", ptr %3, i32 0, i32 1
  %5 = load i64, ptr %4, align 8
  ret i64 %5
}

; Function Attrs: mustprogress nounwind uwtable
define linkonce_odr noundef ptr @_ZNKSt7__cxx1112basic_stringIcSt11char_traitsIcESaIcEE4dataEv(ptr noundef nonnull align 8 dereferenceable(32) %0) #2 comdat align 2 {
  %2 = alloca ptr, align 8
  store ptr %0, ptr %2, align 8
  %3 = load ptr, ptr %2, align 8
  %4 = call noundef ptr @_ZNKSt7__cxx1112basic_stringIcSt11char_traitsIcESaIcEE7_M_dataEv(ptr noundef nonnull align 8 dereferenceable(32) %3)
  ret ptr %4
}

; Function Attrs: mustprogress uwtable
define linkonce_odr { i64, ptr } @_ZNKSt17basic_string_viewIcSt11char_traitsIcEE6substrEmm(ptr noundef nonnull align 8 dereferenceable(16) %0, i64 noundef %1, i64 noundef %2) #5 comdat align 2 {
  %4 = alloca %"class.std::basic_string_view", align 8
  %5 = alloca ptr, align 8
  %6 = alloca i64, align 8
  %7 = alloca i64, align 8
  %8 = alloca i64, align 8
  %9 = alloca i64, align 8
  store ptr %0, ptr %5, align 8
  store i64 %1, ptr %6, align 8
  store i64 %2, ptr %7, align 8
  %10 = load ptr, ptr %5, align 8
  %11 = call noundef i64 @_ZNKSt17basic_string_viewIcSt11char_traitsIcEE4sizeEv(ptr noundef nonnull align 8 dereferenceable(16) %10) #1
  %12 = load i64, ptr %6, align 8
  %13 = call noundef i64 @_ZSt10__sv_checkmmPKc(i64 noundef %11, i64 noundef %12, ptr noundef @.str.63)
  store i64 %13, ptr %6, align 8
  %14 = getelementptr inbounds %"class.std::basic_string_view", ptr %10, i32 0, i32 0
  %15 = load i64, ptr %14, align 8
  %16 = load i64, ptr %6, align 8
  %17 = sub i64 %15, %16
  store i64 %17, ptr %9, align 8
  %18 = call noundef nonnull align 8 dereferenceable(8) ptr @_ZSt3minImERKT_S2_S2_(ptr noundef nonnull align 8 dereferenceable(8) %7, ptr noundef nonnull align 8 dereferenceable(8) %9)
  %19 = load i64, ptr %18, align 8
  store i64 %19, ptr %8, align 8
  %20 = getelementptr inbounds %"class.std::basic_string_view", ptr %10, i32 0, i32 1
  %21 = load ptr, ptr %20, align 8
  %22 = load i64, ptr %6, align 8
  %23 = getelementptr inbounds i8, ptr %21, i64 %22
  %24 = load i64, ptr %8, align 8
  call void @_ZNSt17basic_string_viewIcSt11char_traitsIcEEC2EPKcm(ptr noundef nonnull align 8 dereferenceable(16) %4, ptr noundef %23, i64 noundef %24) #1
  %25 = load { i64, ptr }, ptr %4, align 8
  ret { i64, ptr } %25
}

; Function Attrs: mustprogress nounwind uwtable
define linkonce_odr { i64, ptr } @_ZNKSt7__cxx1112basic_stringIcSt11char_traitsIcESaIcEEcvSt17basic_string_viewIcS2_EEv(ptr noundef nonnull align 8 dereferenceable(32) %0) #2 comdat align 2 {
  %2 = alloca %"class.std::basic_string_view", align 8
  %3 = alloca ptr, align 8
  store ptr %0, ptr %3, align 8
  %4 = load ptr, ptr %3, align 8
  %5 = call noundef ptr @_ZNKSt7__cxx1112basic_stringIcSt11char_traitsIcESaIcEE4dataEv(ptr noundef nonnull align 8 dereferenceable(32) %4) #1
  %6 = call noundef i64 @_ZNKSt7__cxx1112basic_stringIcSt11char_traitsIcESaIcEE4sizeEv(ptr noundef nonnull align 8 dereferenceable(32) %4) #1
  call void @_ZNSt17basic_string_viewIcSt11char_traitsIcEEC2EPKcm(ptr noundef nonnull align 8 dereferenceable(16) %2, ptr noundef %5, i64 noundef %6) #1
  %7 = load { i64, ptr }, ptr %2, align 8
  ret { i64, ptr } %7
}

; Function Attrs: mustprogress nounwind uwtable
define linkonce_odr void @_ZNSt17basic_string_viewIcSt11char_traitsIcEE13remove_suffixEm(ptr noundef nonnull align 8 dereferenceable(16) %0, i64 noundef %1) #2 comdat align 2 {
  %3 = alloca ptr, align 8
  %4 = alloca i64, align 8
  store ptr %0, ptr %3, align 8
  store i64 %1, ptr %4, align 8
  %5 = load ptr, ptr %3, align 8
  %6 = load i64, ptr %4, align 8
  %7 = getelementptr inbounds %"class.std::basic_string_view", ptr %5, i32 0, i32 0
  %8 = load i64, ptr %7, align 8
  %9 = sub i64 %8, %6
  store i64 %9, ptr %7, align 8
  ret void
}

; Function Attrs: mustprogress nounwind uwtable
define linkonce_odr noundef i64 @_ZNKSt17basic_string_viewIcSt11char_traitsIcEE4sizeEv(ptr noundef nonnull align 8 dereferenceable(16) %0) #2 comdat align 2 {
  %2 = alloca ptr, align 8
  store ptr %0, ptr %2, align 8
  %3 = load ptr, ptr %2, align 8
  %4 = getelementptr inbounds %"class.std::basic_string_view", ptr %3, i32 0, i32 0
  %5 = load i64, ptr %4, align 8
  ret i64 %5
}

; Function Attrs: mustprogress uwtable
define linkonce_odr { i64, ptr } @_ZNK3nix9StorePath4nameEv(ptr noundef nonnull align 8 dereferenceable(32) %0) #5 comdat align 2 {
  %2 = alloca %"class.std::basic_string_view", align 8
  %3 = alloca ptr, align 8
  %4 = alloca %"class.std::basic_string_view", align 8
  store ptr %0, ptr %3, align 8
  %5 = load ptr, ptr %3, align 8
  %6 = getelementptr inbounds %"class.nix::StorePath", ptr %5, i32 0, i32 0
  %7 = call { i64, ptr } @_ZNKSt7__cxx1112basic_stringIcSt11char_traitsIcESaIcEEcvSt17basic_string_viewIcS2_EEv(ptr noundef nonnull align 8 dereferenceable(32) %6) #1
  %8 = getelementptr inbounds { i64, ptr }, ptr %4, i32 0, i32 0
  %9 = extractvalue { i64, ptr } %7, 0
  store i64 %9, ptr %8, align 8
  %10 = getelementptr inbounds { i64, ptr }, ptr %4, i32 0, i32 1
  %11 = extractvalue { i64, ptr } %7, 1
  store ptr %11, ptr %10, align 8
  %12 = call { i64, ptr } @_ZNKSt17basic_string_viewIcSt11char_traitsIcEE6substrEmm(ptr noundef nonnull align 8 dereferenceable(16) %4, i64 noundef 33, i64 noundef -1)
  %13 = getelementptr inbounds { i64, ptr }, ptr %2, i32 0, i32 0
  %14 = extractvalue { i64, ptr } %12, 0
  store i64 %14, ptr %13, align 8
  %15 = getelementptr inbounds { i64, ptr }, ptr %2, i32 0, i32 1
  %16 = extractvalue { i64, ptr } %12, 1
  store ptr %16, ptr %15, align 8
  %17 = load { i64, ptr }, ptr %2, align 8
  ret { i64, ptr } %17
}

; Function Attrs: mustprogress uwtable
define { i64, ptr } @_ZN3nix15BasicDerivation12nameFromPathERKNS_9StorePathE(ptr noundef nonnull align 8 dereferenceable(32) %0) #5 align 2 {
  %2 = alloca %"class.std::basic_string_view", align 8
  %3 = alloca ptr, align 8
  %4 = alloca %"class.std::basic_string_view", align 8
  store ptr %0, ptr %3, align 8
  %5 = load ptr, ptr %3, align 8
  %6 = call { i64, ptr } @_ZNK3nix9StorePath4nameEv(ptr noundef nonnull align 8 dereferenceable(32) %5)
  %7 = getelementptr inbounds { i64, ptr }, ptr %2, i32 0, i32 0
  %8 = extractvalue { i64, ptr } %6, 0
  store i64 %8, ptr %7, align 8
  %9 = getelementptr inbounds { i64, ptr }, ptr %2, i32 0, i32 1
  %10 = extractvalue { i64, ptr } %6, 1
  store ptr %10, ptr %9, align 8
  call void @llvm.memcpy.p0.p0.i64(ptr align 8 %4, ptr align 8 @__const._ZN3nix15BasicDerivation12nameFromPathERKNS_9StorePathE.extension, i64 16, i1 false)
  %11 = call noundef i64 @_ZNKSt17basic_string_viewIcSt11char_traitsIcEE4sizeEv(ptr noundef nonnull align 8 dereferenceable(16) %4) #1
  call void @_ZNSt17basic_string_viewIcSt11char_traitsIcEE13remove_suffixEm(ptr noundef nonnull align 8 dereferenceable(16) %2, i64 noundef %11) #1
  %12 = load { i64, ptr }, ptr %2, align 8
  ret { i64, ptr } %12
}