; Function Attrs: mustprogress uwtable
define { i64, ptr } @_ZN3nix15BasicDerivation12nameFromPathERKNS_9StorePathE(ptr nocapture noundef nonnull readonly align 8 dereferenceable(32) %0) local_unnamed_addr #4 align 2 {
  %2 = getelementptr inbounds i8, ptr %0, i64 8
  %3 = load i64, ptr %2, align 8
  %4 = icmp ult i64 %3, 33
  br i1 %4, label %5, label %_ZNK3nix9StorePath4nameEv.exit

5:                                                ; preds = %1
  tail call void (ptr, ...) @_ZSt24__throw_out_of_range_fmtPKcz(ptr noundef nonnull @.str.64, ptr noundef nonnull @.str.63, i64 noundef 33, i64 noundef %3) #27
  unreachable

_ZNK3nix9StorePath4nameEv.exit:                   ; preds = %1
  %6 = load ptr, ptr %0, align 8
  %7 = getelementptr inbounds i8, ptr %6, i64 33
  %8 = add i64 %3, -37
  %.fca.0.insert = insertvalue { i64, ptr } poison, i64 %8, 0
  %.fca.1.insert = insertvalue { i64, ptr } %.fca.0.insert, ptr %7, 1
  ret { i64, ptr } %.fca.1.insert
}